; Function Attrs: mustprogress uwtable
define void @_ZN7rocksdb7IterKey13EnlargeBufferEm(ptr noundef nonnull align 8 dereferenceable(208) %0, i64 noundef %1) local_unnamed_addr #4 align 2 {
  %3 = getelementptr inbounds nuw i8, ptr %0, i64 8
  %4 = load ptr, ptr %3, align 8, !tbaa !89
  %5 = load ptr, ptr %0, align 8, !tbaa !92
  %6 = icmp eq ptr %4, %5
  br i1 %6, label %7, label %9

7:                                                ; preds = %2
  %8 = getelementptr inbounds nuw i8, ptr %0, i64 16
  store i64 0, ptr %8, align 8, !tbaa !93
  br label %9

9:                                                ; preds = %7, %2
  %10 = getelementptr inbounds nuw i8, ptr %0, i64 32
  %.not.i = icmp eq ptr %5, %10
  br i1 %.not.i, label %_ZN7rocksdb7IterKey11ResetBufferEv.exit, label %11

11:                                               ; preds = %9
  %12 = icmp eq ptr %5, null
  br i1 %12, label %14, label %13

13:                                               ; preds = %11
  tail call void @_ZdaPv(ptr noundef nonnull %5) #21
  br label %14

14:                                               ; preds = %13, %11
  store ptr %10, ptr %0, align 8, !tbaa !92
  br label %_ZN7rocksdb7IterKey11ResetBufferEv.exit

_ZN7rocksdb7IterKey11ResetBufferEv.exit:          ; preds = %9, %14
  %15 = getelementptr inbounds nuw i8, ptr %0, i64 24
  store i64 39, ptr %15, align 8, !tbaa !94
  %16 = tail call noalias noundef nonnull ptr @_Znam(i64 noundef %1) #23
  store ptr %16, ptr %0, align 8, !tbaa !92
  store i64 %1, ptr %15, align 8, !tbaa !94
  ret void
}